; Function Attrs: mustprogress uwtable
define void @_ZN6icu_7523ICULanguageBreakFactory13ensureEnginesER10UErrorCode(ptr nocapture noundef nonnull align 8 dereferenceable(16) %this, ptr noundef nonnull align 4 dereferenceable(4) %status) local_unnamed_addr #1 align 2 personality ptr @__gxx_personality_v0 {
entry:
  tail call void @umtx_lock_75(ptr noundef nonnull @_ZZN6icu_7523ICULanguageBreakFactory13ensureEnginesER10UErrorCodeE17gBreakEngineMutex)
  %fEngines = getelementptr inbounds i8, ptr %this, i64 8
  %0 = load ptr, ptr %fEngines, align 8
  %cmp = icmp eq ptr %0, null
  br i1 %cmp, label %if.then, label %if.end11

if.then:                                          ; preds = %entry
  %call = tail call noundef ptr @_ZN6icu_757UMemorynwEm(i64 noundef 40) #13
  %new.isnull = icmp eq ptr %call, null
  br i1 %new.isnull, label %new.cont, label %new.notnull

new.notnull:                                      ; preds = %if.then
  invoke void @_ZN6icu_756UStackC1EPFvPvEPFa8UElementS4_ER10UErrorCode(ptr noundef nonnull align 8 dereferenceable(40) %call, ptr noundef nonnull @uprv_deleteUObject_75, ptr noundef null, ptr noundef nonnull align 4 dereferenceable(4) %status)
          to label %invoke.cont3 unwind label %lpad

new.cont:                                         ; preds = %if.then
  %1 = load i32, ptr %status, align 4
  %cmp.i.i = icmp sgt i32 %1, 0
  br i1 %cmp.i.i, label %if.end11, label %if.then.i

if.then.i:                                        ; preds = %new.cont
  store i32 7, ptr %status, align 4
  br label %if.end11

invoke.cont3:                                     ; preds = %new.notnull
  %.pre = load i32, ptr %status, align 4
  %2 = icmp sgt i32 %.pre, 0
  br i1 %2, label %delete.notnull.i, label %if.end.thread

if.end.thread:                                    ; preds = %invoke.cont3
  store ptr %call, ptr %fEngines, align 8
  br label %if.end11

lpad:                                             ; preds = %new.notnull
  %3 = landingpad { ptr, i32 }
          cleanup
  tail call void @_ZN6icu_757UMemorydlEPv(ptr noundef nonnull %call) #13
  invoke void @umtx_unlock_75(ptr noundef nonnull @_ZZN6icu_7523ICULanguageBreakFactory13ensureEnginesER10UErrorCodeE17gBreakEngineMutex)
          to label %_ZN6icu_755MutexD2Ev.exit6 unwind label %terminate.lpad.i5

delete.notnull.i:                                 ; preds = %invoke.cont3
  %vtable.i = load ptr, ptr %call, align 8
  %vfn.i = getelementptr inbounds i8, ptr %vtable.i, i64 8
  %4 = load ptr, ptr %vfn.i, align 8
  tail call void %4(ptr noundef nonnull align 8 dereferenceable(40) %call) #13
  br label %if.end11

if.end11:                                         ; preds = %if.then.i, %new.cont, %delete.notnull.i, %if.end.thread, %entry
  invoke void @umtx_unlock_75(ptr noundef nonnull @_ZZN6icu_7523ICULanguageBreakFactory13ensureEnginesER10UErrorCodeE17gBreakEngineMutex)
          to label %_ZN6icu_755MutexD2Ev.exit unwind label %terminate.lpad.i

terminate.lpad.i:                                 ; preds = %if.end11
  %5 = landingpad { ptr, i32 }
          catch ptr null
  %6 = extractvalue { ptr, i32 } %5, 0
  tail call void @__clang_call_terminate(ptr %6) #15
  unreachable

_ZN6icu_755MutexD2Ev.exit:                        ; preds = %if.end11
  ret void

terminate.lpad.i5:                                ; preds = %lpad
  %7 = landingpad { ptr, i32 }
          catch ptr null
  %8 = extractvalue { ptr, i32 } %7, 0
  tail call void @__clang_call_terminate(ptr %8) #15
  unreachable

_ZN6icu_755MutexD2Ev.exit6:                       ; preds = %lpad
  resume { ptr, i32 } %3
}